target datalayout = "e-m:e-p270:32:32-p271:32:32-p272:64:64-i64:64-i128:128-f80:128-n8:16:32:64-S128"
target triple = "x86_64-pc-linux-gnu"

@.str = private unnamed_addr constant [2 x i8] c"b\00", align 1
@.str.1 = private unnamed_addr constant [2 x i8] c"k\00", align 1
@.str.2 = private unnamed_addr constant [3 x i8] c"kb\00", align 1
@.str.3 = private unnamed_addr constant [2 x i8] c"m\00", align 1
@.str.4 = private unnamed_addr constant [3 x i8] c"mb\00", align 1
@.str.5 = private unnamed_addr constant [2 x i8] c"g\00", align 1
@.str.6 = private unnamed_addr constant [3 x i8] c"gb\00", align 1

; Function Attrs: nounwind uwtable
define dso_local i64 @memtoull(ptr noundef %0, ptr noundef %1) #0 {
  %3 = alloca i64, align 8
  %4 = alloca ptr, align 8
  %5 = alloca ptr, align 8
  %6 = alloca ptr, align 8
  %7 = alloca [128 x i8], align 16
  %8 = alloca i64, align 8
  %9 = alloca i64, align 8
  %10 = alloca i32, align 4
  %11 = alloca i32, align 4
  %12 = alloca ptr, align 8
  store ptr %0, ptr %4, align 8, !tbaa !5
  store ptr %1, ptr %5, align 8, !tbaa !15
  call void @llvm.lifetime.start.p0(i64 8, ptr %6) #13
  call void @llvm.lifetime.start.p0(i64 128, ptr %7) #13
  call void @llvm.lifetime.start.p0(i64 8, ptr %8) #13
  call void @llvm.lifetime.start.p0(i64 8, ptr %9) #13
  call void @llvm.lifetime.start.p0(i64 4, ptr %10) #13
  %13 = load ptr, ptr %5, align 8, !tbaa !15
  %14 = icmp ne ptr %13, null
  br i1 %14, label %15, label %17

15:                                               ; preds = %2
  %16 = load ptr, ptr %5, align 8, !tbaa !15
  store i32 0, ptr %16, align 4, !tbaa !10
  br label %17

17:                                               ; preds = %15, %2
  %18 = load ptr, ptr %4, align 8, !tbaa !5
  store ptr %18, ptr %6, align 8, !tbaa !5
  %19 = load ptr, ptr %6, align 8, !tbaa !5
  %20 = load i8, ptr %19, align 1, !tbaa !12
  %21 = sext i8 %20 to i32
  %22 = icmp eq i32 %21, 45
  br i1 %22, label %23, label %29

23:                                               ; preds = %17
  %24 = load ptr, ptr %5, align 8, !tbaa !15
  %25 = icmp ne ptr %24, null
  br i1 %25, label %26, label %28

26:                                               ; preds = %23
  %27 = load ptr, ptr %5, align 8, !tbaa !15
  store i32 1, ptr %27, align 4, !tbaa !10
  br label %28

28:                                               ; preds = %26, %23
  store i64 0, ptr %3, align 8
  store i32 1, ptr %11, align 4
  br label %153

29:                                               ; preds = %17
  br label %30

30:                                               ; preds = %49, %29
  %31 = load ptr, ptr %6, align 8, !tbaa !5
  %32 = load i8, ptr %31, align 1, !tbaa !12
  %33 = sext i8 %32 to i32
  %34 = icmp ne i32 %33, 0
  br i1 %34, label %35, label %47

35:                                               ; preds = %30
  %36 = call ptr @__ctype_b_loc() #14
  %37 = load ptr, ptr %36, align 8, !tbaa !24
  %38 = load ptr, ptr %6, align 8, !tbaa !5
  %39 = load i8, ptr %38, align 1, !tbaa !12
  %40 = sext i8 %39 to i32
  %41 = sext i32 %40 to i64
  %42 = getelementptr inbounds i16, ptr %37, i64 %41
  %43 = load i16, ptr %42, align 2, !tbaa !26
  %44 = zext i16 %43 to i32
  %45 = and i32 %44, 2048
  %46 = icmp ne i32 %45, 0
  br label %47

47:                                               ; preds = %35, %30
  %48 = phi i1 [ false, %30 ], [ %46, %35 ]
  br i1 %48, label %49, label %52

49:                                               ; preds = %47
  %50 = load ptr, ptr %6, align 8, !tbaa !5
  %51 = getelementptr inbounds nuw i8, ptr %50, i32 1
  store ptr %51, ptr %6, align 8, !tbaa !5
  br label %30, !llvm.loop !28

52:                                               ; preds = %47
  %53 = load ptr, ptr %6, align 8, !tbaa !5
  %54 = load i8, ptr %53, align 1, !tbaa !12
  %55 = sext i8 %54 to i32
  %56 = icmp eq i32 %55, 0
  br i1 %56, label %61, label %57

57:                                               ; preds = %52
  %58 = load ptr, ptr %6, align 8, !tbaa !5
  %59 = call i32 @strcasecmp(ptr noundef %58, ptr noundef @.str) #15
  %60 = icmp ne i32 %59, 0
  br i1 %60, label %62, label %61

61:                                               ; preds = %57, %52
  store i64 1, ptr %8, align 8, !tbaa !29
  br label %104

62:                                               ; preds = %57
  %63 = load ptr, ptr %6, align 8, !tbaa !5
  %64 = call i32 @strcasecmp(ptr noundef %63, ptr noundef @.str.1) #15
  %65 = icmp ne i32 %64, 0
  br i1 %65, label %67, label %66

66:                                               ; preds = %62
  store i64 1000, ptr %8, align 8, !tbaa !29
  br label %103

67:                                               ; preds = %62
  %68 = load ptr, ptr %6, align 8, !tbaa !5
  %69 = call i32 @strcasecmp(ptr noundef %68, ptr noundef @.str.2) #15
  %70 = icmp ne i32 %69, 0
  br i1 %70, label %72, label %71

71:                                               ; preds = %67
  store i64 1024, ptr %8, align 8, !tbaa !29
  br label %102

72:                                               ; preds = %67
  %73 = load ptr, ptr %6, align 8, !tbaa !5
  %74 = call i32 @strcasecmp(ptr noundef %73, ptr noundef @.str.3) #15
  %75 = icmp ne i32 %74, 0
  br i1 %75, label %77, label %76

76:                                               ; preds = %72
  store i64 1000000, ptr %8, align 8, !tbaa !29
  br label %101

77:                                               ; preds = %72
  %78 = load ptr, ptr %6, align 8, !tbaa !5
  %79 = call i32 @strcasecmp(ptr noundef %78, ptr noundef @.str.4) #15
  %80 = icmp ne i32 %79, 0
  br i1 %80, label %82, label %81

81:                                               ; preds = %77
  store i64 1048576, ptr %8, align 8, !tbaa !29
  br label %100

82:                                               ; preds = %77
  %83 = load ptr, ptr %6, align 8, !tbaa !5
  %84 = call i32 @strcasecmp(ptr noundef %83, ptr noundef @.str.5) #15
  %85 = icmp ne i32 %84, 0
  br i1 %85, label %87, label %86

86:                                               ; preds = %82
  store i64 1000000000, ptr %8, align 8, !tbaa !29
  br label %99

87:                                               ; preds = %82
  %88 = load ptr, ptr %6, align 8, !tbaa !5
  %89 = call i32 @strcasecmp(ptr noundef %88, ptr noundef @.str.6) #15
  %90 = icmp ne i32 %89, 0
  br i1 %90, label %92, label %91

91:                                               ; preds = %87
  store i64 1073741824, ptr %8, align 8, !tbaa !29
  br label %98

92:                                               ; preds = %87
  %93 = load ptr, ptr %5, align 8, !tbaa !15
  %94 = icmp ne ptr %93, null
  br i1 %94, label %95, label %97

95:                                               ; preds = %92
  %96 = load ptr, ptr %5, align 8, !tbaa !15
  store i32 1, ptr %96, align 4, !tbaa !10
  br label %97

97:                                               ; preds = %95, %92
  store i64 0, ptr %3, align 8
  store i32 1, ptr %11, align 4
  br label %153

98:                                               ; preds = %91
  br label %99

99:                                               ; preds = %98, %86
  br label %100

100:                                              ; preds = %99, %81
  br label %101

101:                                              ; preds = %100, %76
  br label %102

102:                                              ; preds = %101, %71
  br label %103

103:                                              ; preds = %102, %66
  br label %104

104:                                              ; preds = %103, %61
  %105 = load ptr, ptr %6, align 8, !tbaa !5
  %106 = load ptr, ptr %4, align 8, !tbaa !5
  %107 = ptrtoint ptr %105 to i64
  %108 = ptrtoint ptr %106 to i64
  %109 = sub i64 %107, %108
  %110 = trunc i64 %109 to i32
  store i32 %110, ptr %10, align 4, !tbaa !10
  %111 = load i32, ptr %10, align 4, !tbaa !10
  %112 = zext i32 %111 to i64
  %113 = icmp uge i64 %112, 128
  br i1 %113, label %114, label %120

114:                                              ; preds = %104
  %115 = load ptr, ptr %5, align 8, !tbaa !15
  %116 = icmp ne ptr %115, null
  br i1 %116, label %117, label %119

117:                                              ; preds = %114
  %118 = load ptr, ptr %5, align 8, !tbaa !15
  store i32 1, ptr %118, align 4, !tbaa !10
  br label %119

119:                                              ; preds = %117, %114
  store i64 0, ptr %3, align 8
  store i32 1, ptr %11, align 4
  br label %153

120:                                              ; preds = %104
  %121 = getelementptr inbounds [128 x i8], ptr %7, i64 0, i64 0
  %122 = load ptr, ptr %4, align 8, !tbaa !5
  %123 = load i32, ptr %10, align 4, !tbaa !10
  %124 = zext i32 %123 to i64
  call void @llvm.memcpy.p0.p0.i64(ptr align 16 %121, ptr align 1 %122, i64 %124, i1 false)
  %125 = load i32, ptr %10, align 4, !tbaa !10
  %126 = zext i32 %125 to i64
  %127 = getelementptr inbounds nuw [128 x i8], ptr %7, i64 0, i64 %126
  store i8 0, ptr %127, align 1, !tbaa !12
  call void @llvm.lifetime.start.p0(i64 8, ptr %12) #13
  %128 = call ptr @__errno_location() #14
  store i32 0, ptr %128, align 4, !tbaa !10
  %129 = getelementptr inbounds [128 x i8], ptr %7, i64 0, i64 0
  %130 = call i64 @strtoull(ptr noundef %129, ptr noundef %12, i32 noundef 10) #13
  store i64 %130, ptr %9, align 8, !tbaa !31
  %131 = load i64, ptr %9, align 8, !tbaa !31
  %132 = icmp eq i64 %131, 0
  br i1 %132, label %133, label %137

133:                                              ; preds = %120
  %134 = call ptr @__errno_location() #14
  %135 = load i32, ptr %134, align 4, !tbaa !10
  %136 = icmp eq i32 %135, 22
  br i1 %136, label %142, label %137

137:                                              ; preds = %133, %120
  %138 = load ptr, ptr %12, align 8, !tbaa !5
  %139 = load i8, ptr %138, align 1, !tbaa !12
  %140 = sext i8 %139 to i32
  %141 = icmp ne i32 %140, 0
  br i1 %141, label %142, label %148

142:                                              ; preds = %137, %133
  %143 = load ptr, ptr %5, align 8, !tbaa !15
  %144 = icmp ne ptr %143, null
  br i1 %144, label %145, label %147

145:                                              ; preds = %142
  %146 = load ptr, ptr %5, align 8, !tbaa !15
  store i32 1, ptr %146, align 4, !tbaa !10
  br label %147

147:                                              ; preds = %145, %142
  store i64 0, ptr %3, align 8
  store i32 1, ptr %11, align 4
  br label %152

148:                                              ; preds = %137
  %149 = load i64, ptr %9, align 8, !tbaa !31
  %150 = load i64, ptr %8, align 8, !tbaa !29
  %151 = mul i64 %149, %150
  store i64 %151, ptr %3, align 8
  store i32 1, ptr %11, align 4
  br label %152

152:                                              ; preds = %148, %147
  call void @llvm.lifetime.end.p0(i64 8, ptr %12) #13
  br label %153

153:                                              ; preds = %152, %119, %97, %28
  call void @llvm.lifetime.end.p0(i64 4, ptr %10) #13
  call void @llvm.lifetime.end.p0(i64 8, ptr %9) #13
  call void @llvm.lifetime.end.p0(i64 8, ptr %8) #13
  call void @llvm.lifetime.end.p0(i64 128, ptr %7) #13
  call void @llvm.lifetime.end.p0(i64 8, ptr %6) #13
  %154 = load i64, ptr %3, align 8
  ret i64 %154
}