; Function Attrs: nofree nounwind uwtable
define dso_local i64 @memtoull(ptr noundef %0, ptr noundef writeonly captures(address_is_null) %1) local_unnamed_addr #6 {
  %3 = alloca [128 x i8], align 16
  %4 = alloca ptr, align 8
  call void @llvm.lifetime.start.p0(i64 128, ptr nonnull %3) #29
  %.not = icmp eq ptr %1, null
  br i1 %.not, label %5, label %.thread

5:                                                ; preds = %2
  %6 = load i8, ptr %0, align 1, !tbaa !9
  %7 = icmp eq i8 %6, 45
  br i1 %7, label %59, label %.preheader

.thread:                                          ; preds = %2
  store i32 0, ptr %1, align 4, !tbaa !5
  %8 = load i8, ptr %0, align 1, !tbaa !9
  %9 = icmp eq i8 %8, 45
  br i1 %9, label %12, label %.preheader

.preheader:                                       ; preds = %5, %.thread
  %.ph = phi i8 [ %6, %5 ], [ %8, %.thread ]
  %.not3851 = icmp eq i8 %.ph, 0
  br i1 %.not3851, label %.critedge.thread, label %.lr.ph

.lr.ph:                                           ; preds = %.preheader
  %10 = tail call ptr @__ctype_b_loc() #30
  %11 = load ptr, ptr %10, align 8, !tbaa !22
  br label %13

12:                                               ; preds = %.thread
  store i32 1, ptr %1, align 4, !tbaa !5
  br label %59

13:                                               ; preds = %.lr.ph, %19
  %.03252 = phi ptr [ %0, %.lr.ph ], [ %20, %19 ]
  %14 = phi i8 [ %.ph, %.lr.ph ], [ %.pr, %19 ]
  %15 = sext i8 %14 to i64
  %16 = getelementptr inbounds i16, ptr %11, i64 %15
  %17 = load i16, ptr %16, align 2, !tbaa !24
  %18 = and i16 %17, 2048
  %.not39 = icmp eq i16 %18, 0
  br i1 %.not39, label %.critedge, label %19

19:                                               ; preds = %13
  %20 = getelementptr inbounds nuw i8, ptr %.03252, i64 1
  %.pr = load i8, ptr %20, align 1, !tbaa !9
  %.not38 = icmp eq i8 %.pr, 0
  br i1 %.not38, label %.critedge.thread, label %13, !llvm.loop !26

.critedge:                                        ; preds = %13
  %21 = tail call i32 @strcasecmp(ptr noundef nonnull %.03252, ptr noundef nonnull @.str) #31
  %.not40 = icmp eq i32 %21, 0
  br i1 %.not40, label %.critedge.thread, label %22

22:                                               ; preds = %.critedge
  %23 = tail call i32 @strcasecmp(ptr noundef nonnull %.03252, ptr noundef nonnull @.str.1) #31
  %.not41 = icmp eq i32 %23, 0
  br i1 %.not41, label %.critedge.thread, label %24

24:                                               ; preds = %22
  %25 = tail call i32 @strcasecmp(ptr noundef nonnull %.03252, ptr noundef nonnull @.str.2) #31
  %.not42 = icmp eq i32 %25, 0
  br i1 %.not42, label %.critedge.thread, label %26

26:                                               ; preds = %24
  %27 = tail call i32 @strcasecmp(ptr noundef nonnull %.03252, ptr noundef nonnull @.str.3) #31
  %.not43 = icmp eq i32 %27, 0
  br i1 %.not43, label %.critedge.thread, label %28

28:                                               ; preds = %26
  %29 = tail call i32 @strcasecmp(ptr noundef nonnull %.03252, ptr noundef nonnull @.str.4) #31
  %.not44 = icmp eq i32 %29, 0
  br i1 %.not44, label %.critedge.thread, label %30

30:                                               ; preds = %28
  %31 = tail call i32 @strcasecmp(ptr noundef nonnull %.03252, ptr noundef nonnull @.str.5) #31
  %.not45 = icmp eq i32 %31, 0
  br i1 %.not45, label %.critedge.thread, label %32

32:                                               ; preds = %30
  %33 = tail call i32 @strcasecmp(ptr noundef nonnull %.03252, ptr noundef nonnull @.str.6) #31
  %.not46 = icmp eq i32 %33, 0
  br i1 %.not46, label %.critedge.thread, label %34

34:                                               ; preds = %32
  br i1 %.not, label %59, label %35

35:                                               ; preds = %34
  store i32 1, ptr %1, align 4, !tbaa !5
  br label %59

.critedge.thread:                                 ; preds = %19, %.preheader, %32, %30, %28, %26, %24, %22, %.critedge
  %.03250 = phi ptr [ %.03252, %.critedge ], [ %.03252, %22 ], [ %.03252, %24 ], [ %.03252, %26 ], [ %.03252, %28 ], [ %.03252, %30 ], [ %.03252, %32 ], [ %0, %.preheader ], [ %20, %19 ]
  %.033 = phi i64 [ 1, %.critedge ], [ 1000, %22 ], [ 1024, %24 ], [ 1000000, %26 ], [ 1048576, %28 ], [ 1000000000, %30 ], [ 1073741824, %32 ], [ 1, %.preheader ], [ 1, %19 ]
  %36 = ptrtoint ptr %.03250 to i64
  %37 = ptrtoint ptr %0 to i64
  %38 = sub i64 %36, %37
  %39 = and i64 %38, 4294967295
  %40 = icmp samesign ugt i64 %39, 127
  br i1 %40, label %41, label %43

41:                                               ; preds = %.critedge.thread
  br i1 %.not, label %59, label %42

42:                                               ; preds = %41
  store i32 1, ptr %1, align 4, !tbaa !5
  br label %59

43:                                               ; preds = %.critedge.thread
  call void @llvm.memcpy.p0.p0.i64(ptr nonnull align 16 %3, ptr nonnull align 1 %0, i64 %39, i1 false)
  %44 = getelementptr inbounds nuw [128 x i8], ptr %3, i64 0, i64 %39
  store i8 0, ptr %44, align 1, !tbaa !9
  call void @llvm.lifetime.start.p0(i64 8, ptr nonnull %4) #29
  %45 = tail call ptr @__errno_location() #30
  store i32 0, ptr %45, align 4, !tbaa !5
  %46 = call i64 @strtoull(ptr noundef nonnull %3, ptr noundef nonnull %4, i32 noundef 10) #29
  %47 = icmp eq i64 %46, 0
  br i1 %47, label %48, label %51

48:                                               ; preds = %43
  %49 = load i32, ptr %45, align 4, !tbaa !5
  %50 = icmp eq i32 %49, 22
  br i1 %50, label %54, label %51

51:                                               ; preds = %48, %43
  %52 = load ptr, ptr %4, align 8, !tbaa !27
  %53 = load i8, ptr %52, align 1, !tbaa !9
  %.not47 = icmp eq i8 %53, 0
  br i1 %.not47, label %56, label %54

54:                                               ; preds = %51, %48
  br i1 %.not, label %58, label %55

55:                                               ; preds = %54
  store i32 1, ptr %1, align 4, !tbaa !5
  br label %58

56:                                               ; preds = %51
  %57 = mul i64 %46, %.033
  br label %58

58:                                               ; preds = %54, %55, %56
  %.1 = phi i64 [ %57, %56 ], [ 0, %55 ], [ 0, %54 ]
  call void @llvm.lifetime.end.p0(i64 8, ptr nonnull %4) #29
  br label %59

59:                                               ; preds = %5, %41, %42, %34, %35, %12, %58
  %.0 = phi i64 [ %.1, %58 ], [ 0, %12 ], [ 0, %35 ], [ 0, %34 ], [ 0, %42 ], [ 0, %41 ], [ 0, %5 ]
  call void @llvm.lifetime.end.p0(i64 128, ptr nonnull %3) #29
  ret i64 %.0
}